target datalayout = "e-m:e-p270:32:32-p271:32:32-p272:64:64-i64:64-i128:128-f80:128-n8:16:32:64-S128"
target triple = "x86_64-pc-linux-gnu"

%struct.CVodeMemRec = type { ptr, double, ptr, ptr, i32, i32, double, double, ptr, i32, i32, ptr, ptr, i32, [13 x ptr], ptr, ptr, ptr, ptr, ptr, ptr, ptr, ptr, ptr, i32, i32, double, i32, i32, i32, i32, i32, double, double, double, double, double, double, double, double, [14 x double], [6 x double], [13 x double], double, double, double, double, double, double, double, i32, double, i32, i64, i32, i32, i32, double, double, double, double, double, double, double, double, double, double, double, double, i64, i32, i64, i64, i64, i64, i64, i64, i64, i32, double, double, double, i64, i64, i64, i64, ptr, i32, ptr, i32, ptr, ptr, ptr, ptr, ptr, i64, double, i32, i64, double, double, double, i32, double, i32, i32, i32, i32, i32, ptr, i64, i32, [6 x [4 x double]], i32, i64, ptr, i32, ptr, ptr, double, double, double, ptr, ptr, ptr, double, double, i32, i32, i64, ptr, i32, ptr, i32, i32, [13 x double], [13 x double], [13 x ptr], i32 }
%struct.CVodeProjMemRec = type { i32, i32, i32, i64, i64, i32, ptr, double, double, i64, i64 }

@__func__.CVodeSetProjFn = private unnamed_addr constant [15 x i8] c"CVodeSetProjFn\00", align 1
@.str = private unnamed_addr constant [118 x i8] c"generated/home/dtcxzyw/WorkSpace/Projects/compilers/llvm-opt-benchmark/bench/sundials/sundials/src/cvode/cvode_proj.c\00", align 1
@.str.1 = private unnamed_addr constant [26 x i8] c"cvode_mem = NULL illegal.\00", align 1
@.str.2 = private unnamed_addr constant [33 x i8] c"The projection function is NULL.\00", align 1
@.str.3 = private unnamed_addr constant [47 x i8] c"Projection is only supported with BDF methods.\00", align 1
@.str.4 = private unnamed_addr constant [25 x i8] c"A memory request failed.\00", align 1

; Function Attrs: nounwind uwtable
define internal i32 @cvProjSetDefaults(ptr noundef %0) #0 {
  %2 = alloca i32, align 4
  %3 = alloca ptr, align 8
  store ptr %0, ptr %3, align 8
  %4 = load ptr, ptr %3, align 8
  %5 = icmp eq ptr %4, null
  br i1 %5, label %6, label %7

6:                                                ; preds = %1
  store i32 -20, ptr %2, align 4
  br label %30

7:                                                ; preds = %1
  %8 = load ptr, ptr %3, align 8
  %9 = getelementptr inbounds %struct.CVodeProjMemRec, ptr %8, i32 0, i32 0
  store i32 1, ptr %9, align 8
  %10 = load ptr, ptr %3, align 8
  %11 = getelementptr inbounds %struct.CVodeProjMemRec, ptr %10, i32 0, i32 1
  store i32 1, ptr %11, align 4
  %12 = load ptr, ptr %3, align 8
  %13 = getelementptr inbounds %struct.CVodeProjMemRec, ptr %12, i32 0, i32 2
  store i32 1, ptr %13, align 8
  %14 = load ptr, ptr %3, align 8
  %15 = getelementptr inbounds %struct.CVodeProjMemRec, ptr %14, i32 0, i32 3
  store i64 1, ptr %15, align 8
  %16 = load ptr, ptr %3, align 8
  %17 = getelementptr inbounds %struct.CVodeProjMemRec, ptr %16, i32 0, i32 4
  store i64 0, ptr %17, align 8
  %18 = load ptr, ptr %3, align 8
  %19 = getelementptr inbounds %struct.CVodeProjMemRec, ptr %18, i32 0, i32 5
  store i32 10, ptr %19, align 8
  %20 = load ptr, ptr %3, align 8
  %21 = getelementptr inbounds %struct.CVodeProjMemRec, ptr %20, i32 0, i32 6
  store ptr null, ptr %21, align 8
  %22 = load ptr, ptr %3, align 8
  %23 = getelementptr inbounds %struct.CVodeProjMemRec, ptr %22, i32 0, i32 7
  store double 1.000000e-01, ptr %23, align 8
  %24 = load ptr, ptr %3, align 8
  %25 = getelementptr inbounds %struct.CVodeProjMemRec, ptr %24, i32 0, i32 8
  store double 2.500000e-01, ptr %25, align 8
  %26 = load ptr, ptr %3, align 8
  %27 = getelementptr inbounds %struct.CVodeProjMemRec, ptr %26, i32 0, i32 9
  store i64 0, ptr %27, align 8
  %28 = load ptr, ptr %3, align 8
  %29 = getelementptr inbounds %struct.CVodeProjMemRec, ptr %28, i32 0, i32 10
  store i64 0, ptr %29, align 8
  store i32 0, ptr %2, align 4
  br label %30

30:                                               ; preds = %7, %6
  %31 = load i32, ptr %2, align 4
  ret i32 %31
}

; Function Attrs: nounwind uwtable
define internal i32 @cvProjCreate(ptr noundef %0) #0 {
  %2 = alloca i32, align 4
  %3 = alloca ptr, align 8
  %4 = alloca i32, align 4
  store ptr %0, ptr %3, align 8
  %5 = load ptr, ptr %3, align 8
  %6 = load ptr, ptr %5, align 8
  %7 = icmp eq ptr %6, null
  br i1 %7, label %8, label %26

8:                                                ; preds = %1
  %9 = call noalias ptr @malloc(i64 noundef 80) #6
  %10 = load ptr, ptr %3, align 8
  store ptr %9, ptr %10, align 8
  %11 = load ptr, ptr %3, align 8
  %12 = load ptr, ptr %11, align 8
  %13 = icmp eq ptr %12, null
  br i1 %13, label %14, label %15

14:                                               ; preds = %8
  store i32 -20, ptr %2, align 4
  br label %27

15:                                               ; preds = %8
  %16 = load ptr, ptr %3, align 8
  %17 = load ptr, ptr %16, align 8
  call void @llvm.memset.p0.i64(ptr align 8 %17, i8 0, i64 80, i1 false)
  %18 = load ptr, ptr %3, align 8
  %19 = load ptr, ptr %18, align 8
  %20 = call i32 @cvProjSetDefaults(ptr noundef %19)
  store i32 %20, ptr %4, align 4
  %21 = load i32, ptr %4, align 4
  %22 = icmp ne i32 %21, 0
  br i1 %22, label %23, label %25

23:                                               ; preds = %15
  %24 = load i32, ptr %4, align 4
  store i32 %24, ptr %2, align 4
  br label %27

25:                                               ; preds = %15
  br label %26

26:                                               ; preds = %25, %1
  store i32 0, ptr %2, align 4
  br label %27

27:                                               ; preds = %26, %23, %14
  %28 = load i32, ptr %2, align 4
  ret i32 %28
}

; Function Attrs: nounwind uwtable
define i32 @CVodeSetProjFn(ptr noundef %0, ptr noundef %1) #0 {
  %3 = alloca i32, align 4
  %4 = alloca ptr, align 8
  %5 = alloca ptr, align 8
  %6 = alloca i32, align 4
  %7 = alloca ptr, align 8
  %8 = alloca ptr, align 8
  store ptr %0, ptr %4, align 8
  store ptr %1, ptr %5, align 8
  %9 = load ptr, ptr %4, align 8
  %10 = icmp eq ptr %9, null
  br i1 %10, label %11, label %12

11:                                               ; preds = %2
  call void (ptr, i32, i32, ptr, ptr, ptr, ...) @cvProcessError(ptr noundef null, i32 noundef -21, i32 noundef 53, ptr noundef @__func__.CVodeSetProjFn, ptr noundef @.str, ptr noundef @.str.1)
  store i32 -21, ptr %3, align 4
  br label %44

12:                                               ; preds = %2
  %13 = load ptr, ptr %4, align 8
  store ptr %13, ptr %7, align 8
  %14 = load ptr, ptr %5, align 8
  %15 = icmp eq ptr %14, null
  br i1 %15, label %16, label %18

16:                                               ; preds = %12
  %17 = load ptr, ptr %7, align 8
  call void (ptr, i32, i32, ptr, ptr, ptr, ...) @cvProcessError(ptr noundef %17, i32 noundef -22, i32 noundef 62, ptr noundef @__func__.CVodeSetProjFn, ptr noundef @.str, ptr noundef @.str.2)
  store i32 -22, ptr %3, align 4
  br label %44

18:                                               ; preds = %12
  %19 = load ptr, ptr %7, align 8
  %20 = getelementptr inbounds %struct.CVodeMemRec, ptr %19, i32 0, i32 4
  %21 = load i32, ptr %20, align 8
  %22 = icmp ne i32 %21, 2
  br i1 %22, label %23, label %25

23:                                               ; preds = %18
  %24 = load ptr, ptr %7, align 8
  call void (ptr, i32, i32, ptr, ptr, ptr, ...) @cvProcessError(ptr noundef %24, i32 noundef -22, i32 noundef 70, ptr noundef @__func__.CVodeSetProjFn, ptr noundef @.str, ptr noundef @.str.3)
  store i32 -22, ptr %3, align 4
  br label %44

25:                                               ; preds = %18
  %26 = load ptr, ptr %7, align 8
  %27 = getelementptr inbounds %struct.CVodeMemRec, ptr %26, i32 0, i32 132
  %28 = call i32 @cvProjCreate(ptr noundef %27)
  store i32 %28, ptr %6, align 4
  %29 = load i32, ptr %6, align 4
  %30 = icmp ne i32 %29, 0
  br i1 %30, label %31, label %33

31:                                               ; preds = %25
  %32 = load ptr, ptr %7, align 8
  call void (ptr, i32, i32, ptr, ptr, ptr, ...) @cvProcessError(ptr noundef %32, i32 noundef -20, i32 noundef 79, ptr noundef @__func__.CVodeSetProjFn, ptr noundef @.str, ptr noundef @.str.4)
  store i32 -20, ptr %3, align 4
  br label %44

33:                                               ; preds = %25
  %34 = load ptr, ptr %7, align 8
  %35 = getelementptr inbounds %struct.CVodeMemRec, ptr %34, i32 0, i32 132
  %36 = load ptr, ptr %35, align 8
  store ptr %36, ptr %8, align 8
  %37 = load ptr, ptr %8, align 8
  %38 = getelementptr inbounds %struct.CVodeProjMemRec, ptr %37, i32 0, i32 0
  store i32 0, ptr %38, align 8
  %39 = load ptr, ptr %5, align 8
  %40 = load ptr, ptr %8, align 8
  %41 = getelementptr inbounds %struct.CVodeProjMemRec, ptr %40, i32 0, i32 6
  store ptr %39, ptr %41, align 8
  %42 = load ptr, ptr %7, align 8
  %43 = getelementptr inbounds %struct.CVodeMemRec, ptr %42, i32 0, i32 133
  store i32 1, ptr %43, align 8
  store i32 0, ptr %3, align 4
  br label %44

44:                                               ; preds = %33, %31, %23, %16, %11
  %45 = load i32, ptr %3, align 4
  ret i32 %45
}